; Function Attrs: nounwind uwtable
define i32 @png_muldiv_warn(ptr noalias noundef %0, i32 noundef %1, i32 noundef %2, i32 noundef %3) local_unnamed_addr #0 {
  %.not.i = icmp eq i32 %3, 0
  br i1 %.not.i, label %20, label %5

5:                                                ; preds = %4
  %6 = icmp eq i32 %1, 0
  %7 = icmp eq i32 %2, 0
  %or.cond.i = or i1 %6, %7
  br i1 %or.cond.i, label %png_muldiv.exit, label %8

8:                                                ; preds = %5
  %9 = sitofp i32 %1 to double
  %10 = sitofp i32 %2 to double
  %11 = fmul double %9, %10
  %12 = sitofp i32 %3 to double
  %13 = fdiv double %11, %12
  %14 = fadd double %13, 5.000000e-01
  %15 = tail call double @llvm.floor.f64(double %14)
  %16 = fcmp ole double %15, 0x41DFFFFFFFC00000
  %17 = fcmp oge double %15, 0xC1E0000000000000
  %or.cond3.i = and i1 %16, %17
  br i1 %or.cond3.i, label %18, label %20

18:                                               ; preds = %8
  %19 = fptosi double %15 to i32
  br label %png_muldiv.exit

20:                                               ; preds = %8, %4
  tail call void @png_warning(ptr noundef %0, ptr noundef nonnull @.str.67) #29
  br label %png_muldiv.exit

png_muldiv.exit:                                  ; preds = %5, %18, %20
  %.0 = phi i32 [ 0, %20 ], [ %19, %18 ], [ 0, %5 ]
  ret i32 %.0
}